target datalayout = "e-m:e-p270:32:32-p271:32:32-p272:64:64-i64:64-i128:128-f80:128-n8:16:32:64-S128"
target triple = "x86_64-pc-linux-gnu"

@.str = private unnamed_addr constant [1 x i8] zeroinitializer, align 1
@.str.1 = private unnamed_addr constant [8 x i8] c"UCS-2BE\00", align 1
@.str.2 = private unnamed_addr constant [8 x i8] c"UCS-2LE\00", align 1

; Function Attrs: nounwind uwtable
define hidden ptr @SplashConvertStringAlloc(ptr noundef %0, ptr noundef %1) #0 {
  %3 = alloca ptr, align 8
  %4 = alloca ptr, align 8
  %5 = alloca ptr, align 8
  %6 = alloca ptr, align 8
  %7 = alloca ptr, align 8
  %8 = alloca ptr, align 8
  %9 = alloca i64, align 8
  %10 = alloca ptr, align 8
  %11 = alloca ptr, align 8
  %12 = alloca i64, align 8
  %13 = alloca i64, align 8
  %14 = alloca i64, align 8
  %15 = alloca ptr, align 8
  store ptr %0, ptr %4, align 8
  store ptr %1, ptr %5, align 8
  store ptr null, ptr %10, align 8
  %16 = load ptr, ptr %4, align 8
  %17 = icmp ne ptr %16, null
  br i1 %17, label %19, label %18

18:                                               ; preds = %2
  store ptr null, ptr %3, align 8
  br label %95

19:                                               ; preds = %2
  %20 = call ptr @setlocale(i32 noundef 6, ptr noundef @.str) #7
  store ptr %20, ptr %15, align 8
  %21 = call ptr @nl_langinfo(i32 noundef 14) #7
  store ptr %21, ptr %6, align 8
  %22 = load ptr, ptr %6, align 8
  %23 = icmp eq ptr %22, null
  br i1 %23, label %30, label %24

24:                                               ; preds = %19
  %25 = load ptr, ptr %6, align 8
  %26 = getelementptr inbounds i8, ptr %25, i64 0
  %27 = load i8, ptr %26, align 1
  %28 = sext i8 %27 to i32
  %29 = icmp eq i32 %28, 0
  br i1 %29, label %30, label %31

30:                                               ; preds = %24, %19
  br label %91

31:                                               ; preds = %24
  %32 = call i32 (...) @platformByteOrder()
  %33 = icmp eq i32 %32, 1
  %34 = select i1 %33, ptr @.str.1, ptr @.str.2
  store ptr %34, ptr %7, align 8
  %35 = load ptr, ptr %7, align 8
  %36 = load ptr, ptr %6, align 8
  %37 = call ptr @iconv_open(ptr noundef %35, ptr noundef %36)
  store ptr %37, ptr %8, align 8
  %38 = load ptr, ptr %8, align 8
  %39 = icmp eq ptr %38, inttoptr (i64 -1 to ptr)
  br i1 %39, label %40, label %41

40:                                               ; preds = %31
  br label %91

41:                                               ; preds = %31
  %42 = load ptr, ptr %4, align 8
  %43 = call i64 @strlen(ptr noundef %42) #8
  store i64 %43, ptr %13, align 8
  %44 = load i64, ptr %13, align 8
  %45 = icmp uge i64 %44, 0
  br i1 %45, label %46, label %60

46:                                               ; preds = %41
  %47 = load i64, ptr %13, align 8
  %48 = icmp ule i64 %47, -1
  br i1 %48, label %49, label %60

49:                                               ; preds = %46
  %50 = load i64, ptr %13, align 8
  %51 = icmp eq i64 %50, 0
  br i1 %51, label %56, label %52

52:                                               ; preds = %49
  %53 = load i64, ptr %13, align 8
  %54 = udiv i64 -1, %53
  %55 = icmp ule i64 2, %54
  br i1 %55, label %56, label %60

56:                                               ; preds = %52, %49
  %57 = load i64, ptr %13, align 8
  %58 = mul i64 %57, 2
  %59 = call noalias ptr @malloc(i64 noundef %58) #9
  br label %61

60:                                               ; preds = %52, %46, %41
  br label %61

61:                                               ; preds = %60, %56
  %62 = phi ptr [ %59, %56 ], [ null, %60 ]
  store ptr %62, ptr %10, align 8
  %63 = load ptr, ptr %10, align 8
  %64 = icmp ne ptr %63, null
  br i1 %64, label %66, label %65

65:                                               ; preds = %61
  store ptr null, ptr %3, align 8
  br label %95

66:                                               ; preds = %61
  %67 = load i64, ptr %13, align 8
  %68 = mul i64 %67, 2
  store i64 %68, ptr %12, align 8
  %69 = load ptr, ptr %10, align 8
  store ptr %69, ptr %11, align 8
  %70 = load i64, ptr %12, align 8
  store i64 %70, ptr %14, align 8
  %71 = load ptr, ptr %8, align 8
  %72 = call i64 @iconv(ptr noundef %71, ptr noundef %4, ptr noundef %13, ptr noundef %11, ptr noundef %14)
  store i64 %72, ptr %9, align 8
  %73 = load ptr, ptr %8, align 8
  %74 = call i32 @iconv_close(ptr noundef %73)
  %75 = load i64, ptr %9, align 8
  %76 = icmp eq i64 %75, -1
  br i1 %76, label %77, label %79

77:                                               ; preds = %66
  %78 = load ptr, ptr %10, align 8
  call void @free(ptr noundef %78) #7
  store ptr null, ptr %10, align 8
  br label %90

79:                                               ; preds = %66
  %80 = load ptr, ptr %5, align 8
  %81 = icmp ne ptr %80, null
  br i1 %81, label %82, label %89

82:                                               ; preds = %79
  %83 = load i64, ptr %12, align 8
  %84 = load i64, ptr %14, align 8
  %85 = sub i64 %83, %84
  %86 = udiv i64 %85, 2
  %87 = trunc i64 %86 to i32
  %88 = load ptr, ptr %5, align 8
  store i32 %87, ptr %88, align 4
  br label %89

89:                                               ; preds = %82, %79
  br label %90

90:                                               ; preds = %89, %77
  br label %91

91:                                               ; preds = %90, %40, %30
  %92 = load ptr, ptr %15, align 8
  %93 = call ptr @setlocale(i32 noundef 6, ptr noundef %92) #7
  %94 = load ptr, ptr %10, align 8
  store ptr %94, ptr %3, align 8
  br label %95

95:                                               ; preds = %91, %65, %18
  %96 = load ptr, ptr %3, align 8
  ret ptr %96
}