; Function Attrs: nounwind uwtable
define hidden noundef ptr @SplashConvertStringAlloc(ptr noundef %0, ptr noundef writeonly %1) local_unnamed_addr #0 {
  %3 = alloca ptr, align 8
  %4 = alloca ptr, align 8
  %5 = alloca i64, align 8
  %6 = alloca i64, align 8
  store ptr %0, ptr %3, align 8
  %.not = icmp eq ptr %0, null
  br i1 %.not, label %.thread, label %7

7:                                                ; preds = %2
  %8 = tail call ptr @setlocale(i32 noundef 6, ptr noundef nonnull @.str) #16
  %9 = tail call ptr @nl_langinfo(i32 noundef 14) #16
  %10 = icmp eq ptr %9, null
  br i1 %10, label %37, label %11

11:                                               ; preds = %7
  %12 = load i8, ptr %9, align 1
  %13 = icmp eq i8 %12, 0
  br i1 %13, label %37, label %14

14:                                               ; preds = %11
  %15 = tail call i32 (...) @platformByteOrder() #16
  %16 = icmp eq i32 %15, 1
  %17 = select i1 %16, ptr @.str.1, ptr @.str.2
  %18 = tail call ptr @iconv_open(ptr noundef nonnull %17, ptr noundef nonnull %9) #16
  %19 = icmp eq ptr %18, inttoptr (i64 -1 to ptr)
  br i1 %19, label %37, label %20

20:                                               ; preds = %14
  %21 = tail call i64 @strlen(ptr noundef nonnull dereferenceable(1) %0) #17
  store i64 %21, ptr %5, align 8
  %22 = icmp sgt i64 %21, -1
  br i1 %22, label %23, label %.thread

23:                                               ; preds = %20
  %24 = shl nuw i64 %21, 1
  %25 = tail call noalias ptr @malloc(i64 noundef %24) #18
  %.not24 = icmp eq ptr %25, null
  br i1 %.not24, label %.thread, label %26

26:                                               ; preds = %23
  store ptr %25, ptr %4, align 8
  store i64 %24, ptr %6, align 8
  %27 = call i64 @iconv(ptr noundef %18, ptr noundef nonnull %3, ptr noundef nonnull %5, ptr noundef nonnull %4, ptr noundef nonnull %6) #16
  %28 = call i32 @iconv_close(ptr noundef %18) #16
  %29 = icmp eq i64 %27, -1
  br i1 %29, label %30, label %31

30:                                               ; preds = %26
  call void @free(ptr noundef nonnull %25) #16
  br label %37

31:                                               ; preds = %26
  %.not25 = icmp eq ptr %1, null
  br i1 %.not25, label %37, label %32

32:                                               ; preds = %31
  %33 = load i64, ptr %6, align 8
  %34 = sub i64 %24, %33
  %35 = lshr i64 %34, 1
  %36 = trunc i64 %35 to i32
  store i32 %36, ptr %1, align 4
  br label %37

37:                                               ; preds = %30, %32, %31, %14, %7, %11
  %.018 = phi ptr [ null, %7 ], [ null, %11 ], [ null, %14 ], [ null, %30 ], [ %25, %32 ], [ %25, %31 ]
  %38 = call ptr @setlocale(i32 noundef 6, ptr noundef %8) #16
  br label %.thread

.thread:                                          ; preds = %20, %23, %2, %37
  %.0 = phi ptr [ %.018, %37 ], [ null, %2 ], [ null, %23 ], [ null, %20 ]
  ret ptr %.0
}